target datalayout = "e-m:e-p270:32:32-p271:32:32-p272:64:64-i64:64-i128:128-f80:128-n8:16:32:64-S128"
target triple = "x86_64-pc-linux-gnu"

%"struct.std::__detail::_List_node_header" = type { %"struct.std::__detail::_List_node_base", i64 }
%"struct.std::__detail::_List_node_base" = type { ptr, ptr }
%"class.glslang::TProgram" = type <{ ptr, ptr, [14 x %"class.std::__cxx11::list.104"], [14 x ptr], [14 x i8], [2 x i8], ptr, ptr, i8, [7 x i8] }>
%"class.std::__cxx11::list.104" = type { %"class.std::__cxx11::_List_base.105" }
%"class.std::__cxx11::_List_base.105" = type { %"struct.std::__cxx11::_List_base<glslang::TShader *, std::allocator<glslang::TShader *>>::_List_impl" }
%"struct.std::__cxx11::_List_base<glslang::TShader *, std::allocator<glslang::TShader *>>::_List_impl" = type { %"struct.std::__detail::_List_node_header" }
%"class.glslang::TIoMapper" = type { ptr }

@_ZTVN7glslang9TIoMapperE = external unnamed_addr constant { [6 x ptr] }, align 8

; Function Attrs: mustprogress nounwind uwtable
define linkonce_odr void @_ZN7glslang9TIoMapperD2Ev(ptr noundef nonnull align 8 dereferenceable(8) %0) unnamed_addr #4 comdat align 2 {
  %2 = alloca ptr, align 8
  store ptr %0, ptr %2, align 8
  ret void
}

; Function Attrs: mustprogress nounwind uwtable
define linkonce_odr void @_ZN7glslang9TIoMapperC2Ev(ptr noundef nonnull align 8 dereferenceable(8) %0) unnamed_addr #4 comdat align 2 {
  %2 = alloca ptr, align 8
  store ptr %0, ptr %2, align 8
  %3 = load ptr, ptr %2, align 8
  store ptr getelementptr inbounds inrange(-16, 32) ({ [6 x ptr] }, ptr @_ZTVN7glslang9TIoMapperE, i32 0, i32 0, i32 2), ptr %3, align 8
  ret void
}

; Function Attrs: mustprogress nounwind uwtable
define noundef zeroext i1 @_ZN7glslang8TProgram5mapIOEPNS_14TIoMapResolverEPNS_9TIoMapperE(ptr noundef nonnull align 8 dereferenceable(497) %0, ptr noundef %1, ptr noundef %2) #4 align 2 {
  %4 = alloca i1, align 1
  %5 = alloca ptr, align 8
  %6 = alloca ptr, align 8
  %7 = alloca ptr, align 8
  %8 = alloca ptr, align 8
  %9 = alloca %"class.glslang::TIoMapper", align 8
  %10 = alloca i32, align 4
  %11 = alloca i32, align 4
  store ptr %0, ptr %5, align 8
  store ptr %1, ptr %6, align 8
  store ptr %2, ptr %7, align 8
  %12 = load ptr, ptr %5, align 8
  %13 = getelementptr inbounds %"class.glslang::TProgram", ptr %12, i32 0, i32 8
  %14 = load i8, ptr %13, align 8
  %15 = trunc i8 %14 to i1
  br i1 %15, label %17, label %16

16:                                               ; preds = %3
  store i1 false, ptr %4, align 1
  br label %65

17:                                               ; preds = %3
  store ptr null, ptr %8, align 8
  call void @_ZN7glslang9TIoMapperC2Ev(ptr noundef nonnull align 8 dereferenceable(8) %9)
  %18 = load ptr, ptr %7, align 8
  %19 = icmp eq ptr %18, null
  br i1 %19, label %20, label %21

20:                                               ; preds = %17
  store ptr %9, ptr %8, align 8
  br label %23

21:                                               ; preds = %17
  %22 = load ptr, ptr %7, align 8
  store ptr %22, ptr %8, align 8
  br label %23

23:                                               ; preds = %21, %20
  store i32 0, ptr %10, align 4
  br label %24

24:                                               ; preds = %52, %23
  %25 = load i32, ptr %10, align 4
  %26 = icmp slt i32 %25, 14
  br i1 %26, label %27, label %55

27:                                               ; preds = %24
  %28 = getelementptr inbounds %"class.glslang::TProgram", ptr %12, i32 0, i32 3
  %29 = load i32, ptr %10, align 4
  %30 = sext i32 %29 to i64
  %31 = getelementptr inbounds [14 x ptr], ptr %28, i64 0, i64 %30
  %32 = load ptr, ptr %31, align 8
  %33 = icmp ne ptr %32, null
  br i1 %33, label %34, label %51

34:                                               ; preds = %27
  %35 = load ptr, ptr %8, align 8
  %36 = load i32, ptr %10, align 4
  %37 = getelementptr inbounds %"class.glslang::TProgram", ptr %12, i32 0, i32 3
  %38 = load i32, ptr %10, align 4
  %39 = sext i32 %38 to i64
  %40 = getelementptr inbounds [14 x ptr], ptr %37, i64 0, i64 %39
  %41 = load ptr, ptr %40, align 8
  %42 = getelementptr inbounds %"class.glslang::TProgram", ptr %12, i32 0, i32 6
  %43 = load ptr, ptr %42, align 8
  %44 = load ptr, ptr %6, align 8
  %45 = load ptr, ptr %35, align 8
  %46 = getelementptr inbounds ptr, ptr %45, i64 2
  %47 = load ptr, ptr %46, align 8
  %48 = call noundef zeroext i1 %47(ptr noundef nonnull align 8 dereferenceable(8) %35, i32 noundef %36, ptr noundef nonnull align 8 dereferenceable(2024) %41, ptr noundef nonnull align 8 dereferenceable(96) %43, ptr noundef %44)
  br i1 %48, label %50, label %49

49:                                               ; preds = %34
  store i1 false, ptr %4, align 1
  store i32 1, ptr %11, align 4
  br label %64

50:                                               ; preds = %34
  br label %51

51:                                               ; preds = %50, %27
  br label %52

52:                                               ; preds = %51
  %53 = load i32, ptr %10, align 4
  %54 = add nsw i32 %53, 1
  store i32 %54, ptr %10, align 4
  br label %24, !llvm.loop !32

55:                                               ; preds = %24
  %56 = load ptr, ptr %8, align 8
  %57 = load ptr, ptr %6, align 8
  %58 = getelementptr inbounds %"class.glslang::TProgram", ptr %12, i32 0, i32 6
  %59 = load ptr, ptr %58, align 8
  %60 = load ptr, ptr %56, align 8
  %61 = getelementptr inbounds ptr, ptr %60, i64 3
  %62 = load ptr, ptr %61, align 8
  %63 = call noundef zeroext i1 %62(ptr noundef nonnull align 8 dereferenceable(8) %56, ptr noundef %57, ptr noundef nonnull align 8 dereferenceable(96) %59)
  store i1 %63, ptr %4, align 1
  store i32 1, ptr %11, align 4
  br label %64

64:                                               ; preds = %55, %49
  call void @_ZN7glslang9TIoMapperD2Ev(ptr noundef nonnull align 8 dereferenceable(8) %9) #3
  br label %65

65:                                               ; preds = %64, %16
  %66 = load i1, ptr %4, align 1
  ret i1 %66
}