; Function Attrs: mustprogress nounwind uwtable
define noundef zeroext i1 @_ZN7glslang8TProgram5mapIOEPNS_14TIoMapResolverEPNS_9TIoMapperE(ptr noundef nonnull readonly align 8 captures(none) dereferenceable(497) %0, ptr noundef %1, ptr noundef %2) local_unnamed_addr #3 align 2 {
  %4 = alloca %"class.glslang::TIoMapper", align 8
  %5 = getelementptr inbounds nuw i8, ptr %0, i64 496
  %6 = load i8, ptr %5, align 8
  %7 = trunc i8 %6 to i1
  br i1 %7, label %8, label %.loopexit

8:                                                ; preds = %3
  store ptr getelementptr inbounds nuw inrange(-16, 32) (i8, ptr @_ZTVN7glslang9TIoMapperE, i64 16), ptr %4, align 8
  %9 = icmp eq ptr %2, null
  %. = select i1 %9, ptr %4, ptr %2
  %10 = getelementptr inbounds nuw i8, ptr %0, i64 352
  %11 = getelementptr inbounds nuw i8, ptr %0, i64 480
  br label %12

12:                                               ; preds = %8, %22
  %indvars.iv = phi i64 [ 0, %8 ], [ %indvars.iv.next, %22 ]
  %13 = getelementptr inbounds nuw [14 x ptr], ptr %10, i64 0, i64 %indvars.iv
  %14 = load ptr, ptr %13, align 8
  %.not = icmp eq ptr %14, null
  br i1 %.not, label %22, label %15

15:                                               ; preds = %12
  %16 = load ptr, ptr %11, align 8
  %17 = load ptr, ptr %., align 8
  %18 = getelementptr inbounds nuw i8, ptr %17, i64 16
  %19 = load ptr, ptr %18, align 8
  %20 = trunc nuw nsw i64 %indvars.iv to i32
  %21 = call noundef zeroext i1 %19(ptr noundef nonnull align 8 dereferenceable(8) %., i32 noundef %20, ptr noundef nonnull align 8 dereferenceable(2024) %14, ptr noundef nonnull align 8 dereferenceable(96) %16, ptr noundef %1) #24
  br i1 %21, label %22, label %.loopexit

22:                                               ; preds = %12, %15
  %indvars.iv.next = add nuw nsw i64 %indvars.iv, 1
  %exitcond.not = icmp eq i64 %indvars.iv.next, 14
  br i1 %exitcond.not, label %23, label %12, !llvm.loop !52

23:                                               ; preds = %22
  %24 = load ptr, ptr %11, align 8
  %25 = load ptr, ptr %., align 8
  %26 = getelementptr inbounds nuw i8, ptr %25, i64 24
  %27 = load ptr, ptr %26, align 8
  %28 = call noundef zeroext i1 %27(ptr noundef nonnull align 8 dereferenceable(8) %., ptr noundef %1, ptr noundef nonnull align 8 dereferenceable(96) %24) #24
  br label %.loopexit

.loopexit:                                        ; preds = %15, %23, %3
  %.013 = phi i1 [ false, %3 ], [ %28, %23 ], [ false, %15 ]
  ret i1 %.013
}